target datalayout = "e-m:e-p270:32:32-p271:32:32-p272:64:64-i64:64-i128:128-f80:128-n8:16:32:64-S128"
target triple = "x86_64-pc-linux-gnu"

%struct.ParallelVacuumState = type { ptr, ptr, ptr, i32, ptr, ptr, ptr, ptr, ptr, ptr, i32, i32, i32, ptr, ptr, ptr, ptr, i32 }
%struct.PVShared = type { i32, i32, i64, double, i8, i32, i32, %struct.pg_atomic_uint32, %struct.pg_atomic_uint32, %struct.pg_atomic_uint32, i32, i64, %struct.VacDeadItemsInfo }
%struct.pg_atomic_uint32 = type { i32 }
%struct.VacDeadItemsInfo = type { i64, i64 }

; Function Attrs: nounwind uwtable
define dso_local void @parallel_vacuum_cleanup_all_indexes(ptr noundef %0, i64 noundef %1, i32 noundef %2, i1 noundef zeroext %3) #0 {
  %5 = alloca ptr, align 8
  %6 = alloca i64, align 8
  %7 = alloca i32, align 4
  %8 = alloca i8, align 1
  store ptr %0, ptr %5, align 8
  store i64 %1, ptr %6, align 8
  store i32 %2, ptr %7, align 4
  %9 = zext i1 %3 to i8
  store i8 %9, ptr %8, align 1
  %10 = load i64, ptr %6, align 8
  %11 = sitofp i64 %10 to double
  %12 = load ptr, ptr %5, align 8
  %13 = getelementptr inbounds nuw %struct.ParallelVacuumState, ptr %12, i32 0, i32 4
  %14 = load ptr, ptr %13, align 8
  %15 = getelementptr inbounds nuw %struct.PVShared, ptr %14, i32 0, i32 3
  store double %11, ptr %15, align 8
  %16 = load i8, ptr %8, align 1, !range !6, !noundef !7
  %17 = trunc i8 %16 to i1
  %18 = load ptr, ptr %5, align 8
  %19 = getelementptr inbounds nuw %struct.ParallelVacuumState, ptr %18, i32 0, i32 4
  %20 = load ptr, ptr %19, align 8
  %21 = getelementptr inbounds nuw %struct.PVShared, ptr %20, i32 0, i32 4
  %22 = zext i1 %17 to i8
  store i8 %22, ptr %21, align 8
  %23 = load ptr, ptr %5, align 8
  %24 = load i32, ptr %7, align 4
  call void @parallel_vacuum_process_all_indexes(ptr noundef %23, i32 noundef %24, i1 noundef zeroext false)
  ret void
}