; Function Attrs: nounwind uwtable
define dso_local void @parallel_vacuum_cleanup_all_indexes(ptr noundef captures(none) %0, i64 noundef %1, i32 noundef %2, i1 noundef zeroext %3) local_unnamed_addr #0 {
  %5 = zext i1 %3 to i8
  %6 = sitofp i64 %1 to double
  %7 = getelementptr inbounds nuw i8, ptr %0, i64 32
  %8 = load ptr, ptr %7, align 8
  %9 = getelementptr inbounds nuw i8, ptr %8, i64 16
  store double %6, ptr %9, align 8
  %10 = load ptr, ptr %7, align 8
  %11 = getelementptr inbounds nuw i8, ptr %10, i64 24
  store i8 %5, ptr %11, align 8
  tail call fastcc void @parallel_vacuum_process_all_indexes(ptr noundef %0, i32 noundef %2, i1 noundef zeroext false)
  ret void
}